target datalayout = "e-m:e-p270:32:32-p271:32:32-p272:64:64-i64:64-i128:128-f80:128-n8:16:32:64-S128"
target triple = "x86_64-pc-linux-gnu"

%struct.asn1_string_st = type { i32, i32, ptr, i64 }

; Function Attrs: nounwind uwtable
define dso_local void @corrupt_signature(ptr noundef %0) #0 {
  %2 = alloca ptr, align 8
  %3 = alloca ptr, align 8
  store ptr %0, ptr %2, align 8, !tbaa !117
  call void @llvm.lifetime.start.p0(i64 8, ptr %3) #12
  %4 = load ptr, ptr %2, align 8, !tbaa !117
  %5 = getelementptr inbounds nuw %struct.asn1_string_st, ptr %4, i32 0, i32 2
  %6 = load ptr, ptr %5, align 8, !tbaa !188
  store ptr %6, ptr %3, align 8, !tbaa !9
  %7 = load ptr, ptr %3, align 8, !tbaa !9
  %8 = load ptr, ptr %2, align 8, !tbaa !117
  %9 = getelementptr inbounds nuw %struct.asn1_string_st, ptr %8, i32 0, i32 0
  %10 = load i32, ptr %9, align 8, !tbaa !190
  %11 = sub nsw i32 %10, 1
  %12 = sext i32 %11 to i64
  %13 = getelementptr inbounds i8, ptr %7, i64 %12
  %14 = load i8, ptr %13, align 1, !tbaa !11
  %15 = zext i8 %14 to i32
  %16 = xor i32 %15, 1
  %17 = trunc i32 %16 to i8
  store i8 %17, ptr %13, align 1, !tbaa !11
  call void @llvm.lifetime.end.p0(i64 8, ptr %3) #12
  ret void
}