; Function Attrs: mustprogress nofree norecurse nosync nounwind willreturn memory(readwrite, inaccessiblemem: none) uwtable
define dso_local void @corrupt_signature(ptr noundef readonly captures(none) %0) local_unnamed_addr #21 {
  %2 = getelementptr inbounds nuw i8, ptr %0, i64 8
  %3 = load ptr, ptr %2, align 8, !tbaa !109
  %4 = load i32, ptr %0, align 8, !tbaa !111
  %5 = sext i32 %4 to i64
  %6 = getelementptr i8, ptr %3, i64 %5
  %7 = getelementptr i8, ptr %6, i64 -1
  %8 = load i8, ptr %7, align 1, !tbaa !13
  %9 = xor i8 %8, 1
  store i8 %9, ptr %7, align 1, !tbaa !13
  ret void
}